(VMore Mayhem
p0
VImelda May
p1
V2011
p2
((L1L
VPulling the rug
p3
tp4
(L2L
VPsycho
p5
tp6
(L3L
VMayhem
p7
tp8
(L4L
VKentish town waltz
p9
tp10
tp11
tp12
.(lp0
L0L
aL2L
aL4L
aL6L
aL8L
aL10L
aL12L
aL14L
aL16L
aL18L
a.(lp0
L1L
aL3L
aL5L
aL7L
aL9L
aL11L
aL13L
aL15L
aL17L
aL19L
a.L2998302L
.